target datalayout = "e-m:e-p270:32:32-p271:32:32-p272:64:64-i64:64-i128:128-f80:128-n8:16:32:64-S128"
target triple = "x86_64-unknown-linux-gnu"

%"struct.node::AssertionInfo" = type { ptr, ptr, ptr }
%"class.v8::Local" = type { %"class.v8::LocalBase" }
%"class.v8::LocalBase" = type { %"class.v8::IndirectHandleBase" }
%"class.v8::IndirectHandleBase" = type { ptr }
%"class.v8::Local.0" = type { %"class.v8::LocalBase.1" }
%"class.v8::LocalBase.1" = type { %"class.v8::IndirectHandleBase" }
%"class.v8::HandleScope" = type { ptr, ptr, ptr }
%"class.v8::Maybe" = type { i8, i64 }
%"class.v8::MaybeLocal" = type { %"class.v8::Local" }
%"class.v8::Local.2" = type { %"class.v8::LocalBase.3" }
%"class.v8::LocalBase.3" = type { %"class.v8::IndirectHandleBase" }

@_ZZN4node11StringBytes11StorageSizeEPN2v87IsolateENS1_5LocalINS1_5ValueEEENS_8encodingEE4args = internal constant %"struct.node::AssertionInfo" { ptr @.str.13, ptr @.str.14, ptr @.str.15 }, align 8
@_ZZN4node11StringBytes11StorageSizeEPN2v87IsolateENS1_5LocalINS1_5ValueEEENS_8encodingEE4args_0 = internal constant %"struct.node::AssertionInfo" { ptr @.str.16, ptr @.str.11, ptr @.str.15 }, align 8

; Function Attrs: mustprogress nounwind uwtable
define linkonce_odr dso_local void @_ZN2v85MaybeImEC2ERKm(ptr noundef nonnull align 8 dereferenceable(16) %this, ptr noundef nonnull align 8 dereferenceable(8) %t) unnamed_addr #4 comdat align 2 {
entry:
  %this.addr = alloca ptr, align 8
  %t.addr = alloca ptr, align 8
  store ptr %this, ptr %this.addr, align 8
  store ptr %t, ptr %t.addr, align 8
  %this1 = load ptr, ptr %this.addr, align 8
  %has_value_ = getelementptr inbounds %"class.v8::Maybe", ptr %this1, i32 0, i32 0
  store i8 1, ptr %has_value_, align 8
  %value_ = getelementptr inbounds %"class.v8::Maybe", ptr %this1, i32 0, i32 1
  %0 = load ptr, ptr %t.addr, align 8
  %1 = load i64, ptr %0, align 8
  store i64 %1, ptr %value_, align 8
  ret void
}

; Function Attrs: mustprogress nounwind uwtable
define linkonce_odr dso_local void @_ZN2v85MaybeImEC2Ev(ptr noundef nonnull align 8 dereferenceable(16) %this) unnamed_addr #4 comdat align 2 {
entry:
  %this.addr = alloca ptr, align 8
  store ptr %this, ptr %this.addr, align 8
  %this1 = load ptr, ptr %this.addr, align 8
  %has_value_ = getelementptr inbounds %"class.v8::Maybe", ptr %this1, i32 0, i32 0
  store i8 0, ptr %has_value_, align 8
  ret void
}

; Function Attrs: mustprogress nounwind uwtable
define linkonce_odr dso_local void @_ZN2v85MaybeImEC2EOm(ptr noundef nonnull align 8 dereferenceable(16) %this, ptr noundef nonnull align 8 dereferenceable(8) %t) unnamed_addr #4 comdat align 2 {
entry:
  %this.addr = alloca ptr, align 8
  %t.addr = alloca ptr, align 8
  store ptr %this, ptr %this.addr, align 8
  store ptr %t, ptr %t.addr, align 8
  %this1 = load ptr, ptr %this.addr, align 8
  %has_value_ = getelementptr inbounds %"class.v8::Maybe", ptr %this1, i32 0, i32 0
  store i8 1, ptr %has_value_, align 8
  %value_ = getelementptr inbounds %"class.v8::Maybe", ptr %this1, i32 0, i32 1
  %0 = load ptr, ptr %t.addr, align 8
  %1 = load i64, ptr %0, align 8
  store i64 %1, ptr %value_, align 8
  ret void
}

; Function Attrs: mustprogress nounwind uwtable
define linkonce_odr dso_local { i8, i64 } @_ZN2v84JustImEENS_5MaybeIT_EERKS2_(ptr noundef nonnull align 8 dereferenceable(8) %t) #4 comdat {
entry:
  %retval = alloca %"class.v8::Maybe", align 8
  %t.addr = alloca ptr, align 8
  store ptr %t, ptr %t.addr, align 8
  %0 = load ptr, ptr %t.addr, align 8
  call void @_ZN2v85MaybeImEC2ERKm(ptr noundef nonnull align 8 dereferenceable(16) %retval, ptr noundef nonnull align 8 dereferenceable(8) %0)
  %1 = load { i8, i64 }, ptr %retval, align 8
  ret { i8, i64 } %1
}

; Function Attrs: mustprogress nounwind uwtable
define internal noundef i64 @_ZN4nodeL24base64_decoded_size_fastEm(i64 noundef %size) #4 {
entry:
  %size.addr = alloca i64, align 8
  store i64 %size, ptr %size.addr, align 8
  %0 = load i64, ptr %size.addr, align 8
  %cmp = icmp ugt i64 %0, 1
  br i1 %cmp, label %cond.true, label %cond.false

cond.true:                                        ; preds = %entry
  %1 = load i64, ptr %size.addr, align 8
  %div = udiv i64 %1, 4
  %mul = mul i64 %div, 3
  %2 = load i64, ptr %size.addr, align 8
  %rem = urem i64 %2, 4
  %add = add i64 %rem, 1
  %div1 = udiv i64 %add, 2
  %add2 = add i64 %mul, %div1
  br label %cond.end

cond.false:                                       ; preds = %entry
  br label %cond.end

cond.end:                                         ; preds = %cond.false, %cond.true
  %cond = phi i64 [ %add2, %cond.true ], [ 0, %cond.false ]
  ret i64 %cond
}

; Function Attrs: mustprogress nounwind uwtable
define linkonce_odr dso_local { i8, i64 } @_ZN2v87NothingImEENS_5MaybeIT_EEv() #4 comdat {
entry:
  %retval = alloca %"class.v8::Maybe", align 8
  call void @_ZN2v85MaybeImEC2Ev(ptr noundef nonnull align 8 dereferenceable(16) %retval)
  %0 = load { i8, i64 }, ptr %retval, align 8
  ret { i8, i64 } %0
}

; Function Attrs: mustprogress nounwind uwtable
define linkonce_odr dso_local { i8, i64 } @_ZN2v84JustImTnPNSt9enable_ifIXntsr3stdE21is_lvalue_reference_vIT_EEvE4typeELPv0EEENS_5MaybeIS2_EEOS2_(ptr noundef nonnull align 8 dereferenceable(8) %t) #4 comdat {
entry:
  %retval = alloca %"class.v8::Maybe", align 8
  %t.addr = alloca ptr, align 8
  store ptr %t, ptr %t.addr, align 8
  %0 = load ptr, ptr %t.addr, align 8
  call void @_ZN2v85MaybeImEC2EOm(ptr noundef nonnull align 8 dereferenceable(16) %retval, ptr noundef nonnull align 8 dereferenceable(8) %0)
  %1 = load { i8, i64 }, ptr %retval, align 8
  ret { i8, i64 } %1
}

; Function Attrs: mustprogress nounwind uwtable
define dso_local { i8, i64 } @_ZN4node11StringBytes11StorageSizeEPN2v87IsolateENS1_5LocalINS1_5ValueEEENS_8encodingE(ptr noundef %isolate, ptr %val.coerce, i32 noundef %encoding) #4 align 2 {
entry:
  %slot.addr.i136 = alloca ptr, align 8
  %slot.addr.i135 = alloca ptr, align 8
  %slot.addr.i134 = alloca ptr, align 8
  %slot.addr.i133 = alloca ptr, align 8
  %slot.addr.i132 = alloca ptr, align 8
  %slot.addr.i131 = alloca ptr, align 8
  %this.addr.i.i126 = alloca ptr, align 8
  %this.addr.i127 = alloca ptr, align 8
  %this.addr.i.i121 = alloca ptr, align 8
  %this.addr.i122 = alloca ptr, align 8
  %this.addr.i.i116 = alloca ptr, align 8
  %this.addr.i117 = alloca ptr, align 8
  %this.addr.i.i111 = alloca ptr, align 8
  %this.addr.i112 = alloca ptr, align 8
  %this.addr.i.i106 = alloca ptr, align 8
  %this.addr.i107 = alloca ptr, align 8
  %this.addr.i.i102 = alloca ptr, align 8
  %this.addr.i103 = alloca ptr, align 8
  %slot.addr.i = alloca ptr, align 8
  %this.addr.i.i = alloca ptr, align 8
  %this.addr.i100 = alloca ptr, align 8
  %this.addr.i98 = alloca ptr, align 8
  %this.addr.i95 = alloca ptr, align 8
  %this.addr.i93 = alloca ptr, align 8
  %this.addr.i91 = alloca ptr, align 8
  %this.addr.i88 = alloca ptr, align 8
  %out.addr.i = alloca ptr, align 8
  %this.addr.i86 = alloca ptr, align 8
  %this.addr.i83 = alloca ptr, align 8
  %this.addr.i80 = alloca ptr, align 8
  %this.addr.i77 = alloca ptr, align 8
  %this.addr.i74 = alloca ptr, align 8
  %this.addr.i71 = alloca ptr, align 8
  %this.addr.i68 = alloca ptr, align 8
  %this.addr.i = alloca ptr, align 8
  %retval = alloca %"class.v8::Maybe", align 8
  %val = alloca %"class.v8::Local.0", align 8
  %isolate.addr = alloca ptr, align 8
  %encoding.addr = alloca i32, align 4
  %scope = alloca %"class.v8::HandleScope", align 8
  %data_size = alloca i64, align 8
  %is_buffer = alloca i8, align 1
  %agg.tmp = alloca %"class.v8::Local.0", align 8
  %ref.tmp = alloca i64, align 8
  %agg.tmp7 = alloca %"class.v8::Local.0", align 8
  %cleanup.dest.slot = alloca i32, align 4
  %str = alloca %"class.v8::Local", align 8
  %ref.tmp13 = alloca %"class.v8::MaybeLocal", align 8
  %agg.tmp15 = alloca %"class.v8::Local.2", align 8
  %coerce.dive = getelementptr inbounds %"class.v8::Local.0", ptr %val, i32 0, i32 0
  %coerce.dive1 = getelementptr inbounds %"class.v8::LocalBase.1", ptr %coerce.dive, i32 0, i32 0
  %coerce.dive2 = getelementptr inbounds %"class.v8::IndirectHandleBase", ptr %coerce.dive1, i32 0, i32 0
  store ptr %val.coerce, ptr %coerce.dive2, align 8
  store ptr %isolate, ptr %isolate.addr, align 8
  store i32 %encoding, ptr %encoding.addr, align 4
  %0 = load ptr, ptr %isolate.addr, align 8
  call void @_ZN2v811HandleScopeC1EPNS_7IsolateE(ptr noundef nonnull align 8 dereferenceable(24) %scope, ptr noundef %0)
  store i64 0, ptr %data_size, align 8
  call void @llvm.memcpy.p0.p0.i64(ptr align 8 %agg.tmp, ptr align 8 %val, i64 8, i1 false)
  %coerce.dive3 = getelementptr inbounds %"class.v8::Local.0", ptr %agg.tmp, i32 0, i32 0
  %coerce.dive4 = getelementptr inbounds %"class.v8::LocalBase.1", ptr %coerce.dive3, i32 0, i32 0
  %coerce.dive5 = getelementptr inbounds %"class.v8::IndirectHandleBase", ptr %coerce.dive4, i32 0, i32 0
  %1 = load ptr, ptr %coerce.dive5, align 8
  %call = call noundef zeroext i1 @_ZN4node6Buffer11HasInstanceEN2v85LocalINS1_5ValueEEE(ptr %1)
  %frombool = zext i1 %call to i8
  store i8 %frombool, ptr %is_buffer, align 1
  %2 = load i8, ptr %is_buffer, align 1
  %tobool = trunc i8 %2 to i1
  br i1 %tobool, label %land.lhs.true, label %if.end

land.lhs.true:                                    ; preds = %entry
  %3 = load i32, ptr %encoding.addr, align 4
  %cmp = icmp eq i32 %3, 6
  br i1 %cmp, label %if.then, label %lor.lhs.false

lor.lhs.false:                                    ; preds = %land.lhs.true
  %4 = load i32, ptr %encoding.addr, align 4
  %cmp6 = icmp eq i32 %4, 4
  br i1 %cmp6, label %if.then, label %if.end

if.then:                                          ; preds = %lor.lhs.false, %land.lhs.true
  call void @llvm.memcpy.p0.p0.i64(ptr align 8 %agg.tmp7, ptr align 8 %val, i64 8, i1 false)
  %coerce.dive8 = getelementptr inbounds %"class.v8::Local.0", ptr %agg.tmp7, i32 0, i32 0
  %coerce.dive9 = getelementptr inbounds %"class.v8::LocalBase.1", ptr %coerce.dive8, i32 0, i32 0
  %coerce.dive10 = getelementptr inbounds %"class.v8::IndirectHandleBase", ptr %coerce.dive9, i32 0, i32 0
  %5 = load ptr, ptr %coerce.dive10, align 8
  %call11 = call noundef i64 @_ZN4node6Buffer6LengthEN2v85LocalINS1_5ValueEEE(ptr %5)
  store i64 %call11, ptr %ref.tmp, align 8
  %call12 = call { i8, i64 } @_ZN2v84JustImTnPNSt9enable_ifIXntsr3stdE21is_lvalue_reference_vIT_EEvE4typeELPv0EEENS_5MaybeIS2_EEOS2_(ptr noundef nonnull align 8 dereferenceable(8) %ref.tmp)
  %6 = getelementptr inbounds { i8, i64 }, ptr %retval, i32 0, i32 0
  %7 = extractvalue { i8, i64 } %call12, 0
  store i8 %7, ptr %6, align 8
  %8 = getelementptr inbounds { i8, i64 }, ptr %retval, i32 0, i32 1
  %9 = extractvalue { i8, i64 } %call12, 1
  store i64 %9, ptr %8, align 8
  store i32 1, ptr %cleanup.dest.slot, align 4
  br label %cleanup

if.end:                                           ; preds = %lor.lhs.false, %entry
  store ptr %str, ptr %this.addr.i86, align 8
  %this1.i87 = load ptr, ptr %this.addr.i86, align 8
  store ptr %this1.i87, ptr %this.addr.i91, align 8
  %this1.i92 = load ptr, ptr %this.addr.i91, align 8
  store ptr %this1.i92, ptr %this.addr.i93, align 8
  %this1.i94 = load ptr, ptr %this.addr.i93, align 8
  store ptr null, ptr %this1.i94, align 8
  store ptr %val, ptr %this.addr.i83, align 8
  %this1.i84 = load ptr, ptr %this.addr.i83, align 8
  store ptr %this1.i84, ptr %this.addr.i100, align 8
  %this1.i101 = load ptr, ptr %this.addr.i100, align 8
  store ptr %this1.i101, ptr %this.addr.i.i, align 8
  %this1.i.i = load ptr, ptr %this.addr.i.i, align 8
  %10 = load ptr, ptr %this1.i.i, align 8
  store ptr %10, ptr %slot.addr.i, align 8
  %11 = load ptr, ptr %slot.addr.i, align 8
  %12 = load ptr, ptr %isolate.addr, align 8
  %call16 = call ptr @_ZN2v87Isolate17GetCurrentContextEv(ptr noundef nonnull align 1 dereferenceable(1) %12)
  %coerce.dive17 = getelementptr inbounds %"class.v8::Local.2", ptr %agg.tmp15, i32 0, i32 0
  %coerce.dive18 = getelementptr inbounds %"class.v8::LocalBase.3", ptr %coerce.dive17, i32 0, i32 0
  %coerce.dive19 = getelementptr inbounds %"class.v8::IndirectHandleBase", ptr %coerce.dive18, i32 0, i32 0
  store ptr %call16, ptr %coerce.dive19, align 8
  %coerce.dive20 = getelementptr inbounds %"class.v8::Local.2", ptr %agg.tmp15, i32 0, i32 0
  %coerce.dive21 = getelementptr inbounds %"class.v8::LocalBase.3", ptr %coerce.dive20, i32 0, i32 0
  %coerce.dive22 = getelementptr inbounds %"class.v8::IndirectHandleBase", ptr %coerce.dive21, i32 0, i32 0
  %13 = load ptr, ptr %coerce.dive22, align 8
  %call23 = call ptr @_ZNK2v85Value8ToStringENS_5LocalINS_7ContextEEE(ptr noundef nonnull align 1 dereferenceable(1) %11, ptr %13)
  %coerce.dive24 = getelementptr inbounds %"class.v8::MaybeLocal", ptr %ref.tmp13, i32 0, i32 0
  %coerce.dive25 = getelementptr inbounds %"class.v8::Local", ptr %coerce.dive24, i32 0, i32 0
  %coerce.dive26 = getelementptr inbounds %"class.v8::LocalBase", ptr %coerce.dive25, i32 0, i32 0
  %coerce.dive27 = getelementptr inbounds %"class.v8::IndirectHandleBase", ptr %coerce.dive26, i32 0, i32 0
  store ptr %call23, ptr %coerce.dive27, align 8
  store ptr %ref.tmp13, ptr %this.addr.i88, align 8
  store ptr %str, ptr %out.addr.i, align 8
  %this1.i89 = load ptr, ptr %this.addr.i88, align 8
  %14 = load ptr, ptr %out.addr.i, align 8
  call void @llvm.memcpy.p0.p0.i64(ptr align 8 %14, ptr align 8 %this1.i89, i64 8, i1 false)
  store ptr %this1.i89, ptr %this.addr.i95, align 8
  %this1.i96 = load ptr, ptr %this.addr.i95, align 8
  store ptr %this1.i96, ptr %this.addr.i98, align 8
  %this1.i99 = load ptr, ptr %this.addr.i98, align 8
  %15 = load ptr, ptr %this1.i99, align 8
  %cmp.i = icmp eq ptr %15, null
  %lnot.i = xor i1 %cmp.i, true
  %lnot = xor i1 %lnot.i, true
  br i1 %lnot, label %if.then29, label %if.end31

if.then29:                                        ; preds = %if.end
  %call30 = call { i8, i64 } @_ZN2v87NothingImEENS_5MaybeIT_EEv()
  %16 = getelementptr inbounds { i8, i64 }, ptr %retval, i32 0, i32 0
  %17 = extractvalue { i8, i64 } %call30, 0
  store i8 %17, ptr %16, align 8
  %18 = getelementptr inbounds { i8, i64 }, ptr %retval, i32 0, i32 1
  %19 = extractvalue { i8, i64 } %call30, 1
  store i64 %19, ptr %18, align 8
  store i32 1, ptr %cleanup.dest.slot, align 4
  br label %cleanup

if.end31:                                         ; preds = %if.end
  %20 = load i32, ptr %encoding.addr, align 4
  switch i32 %20, label %sw.default [
    i32 0, label %sw.bb
    i32 4, label %sw.bb
    i32 6, label %sw.bb34
    i32 1, label %sw.bb34
    i32 3, label %sw.bb38
    i32 7, label %sw.bb43
    i32 2, label %sw.bb43
    i32 5, label %sw.bb48
  ]

sw.bb:                                            ; preds = %if.end31, %if.end31
  store ptr %str, ptr %this.addr.i80, align 8
  %this1.i81 = load ptr, ptr %this.addr.i80, align 8
  store ptr %this1.i81, ptr %this.addr.i103, align 8
  %this1.i104 = load ptr, ptr %this.addr.i103, align 8
  store ptr %this1.i104, ptr %this.addr.i.i102, align 8
  %this1.i.i105 = load ptr, ptr %this.addr.i.i102, align 8
  %21 = load ptr, ptr %this1.i.i105, align 8
  store ptr %21, ptr %slot.addr.i136, align 8
  %22 = load ptr, ptr %slot.addr.i136, align 8
  %call33 = call noundef i32 @_ZNK2v86String6LengthEv(ptr noundef nonnull align 1 dereferenceable(1) %22)
  %conv = sext i32 %call33 to i64
  store i64 %conv, ptr %data_size, align 8
  br label %sw.epilog

sw.bb34:                                          ; preds = %if.end31, %if.end31
  store ptr %str, ptr %this.addr.i77, align 8
  %this1.i78 = load ptr, ptr %this.addr.i77, align 8
  store ptr %this1.i78, ptr %this.addr.i107, align 8
  %this1.i108 = load ptr, ptr %this.addr.i107, align 8
  store ptr %this1.i108, ptr %this.addr.i.i106, align 8
  %this1.i.i109 = load ptr, ptr %this.addr.i.i106, align 8
  %23 = load ptr, ptr %this1.i.i109, align 8
  store ptr %23, ptr %slot.addr.i135, align 8
  %24 = load ptr, ptr %slot.addr.i135, align 8
  %call36 = call noundef i32 @_ZNK2v86String6LengthEv(ptr noundef nonnull align 1 dereferenceable(1) %24)
  %mul = mul nsw i32 3, %call36
  %conv37 = sext i32 %mul to i64
  store i64 %conv37, ptr %data_size, align 8
  br label %sw.epilog

sw.bb38:                                          ; preds = %if.end31
  store ptr %str, ptr %this.addr.i74, align 8
  %this1.i75 = load ptr, ptr %this.addr.i74, align 8
  store ptr %this1.i75, ptr %this.addr.i112, align 8
  %this1.i113 = load ptr, ptr %this.addr.i112, align 8
  store ptr %this1.i113, ptr %this.addr.i.i111, align 8
  %this1.i.i114 = load ptr, ptr %this.addr.i.i111, align 8
  %25 = load ptr, ptr %this1.i.i114, align 8
  store ptr %25, ptr %slot.addr.i134, align 8
  %26 = load ptr, ptr %slot.addr.i134, align 8
  %call40 = call noundef i32 @_ZNK2v86String6LengthEv(ptr noundef nonnull align 1 dereferenceable(1) %26)
  %conv41 = sext i32 %call40 to i64
  %mul42 = mul i64 %conv41, 2
  store i64 %mul42, ptr %data_size, align 8
  br label %sw.epilog

sw.bb43:                                          ; preds = %if.end31, %if.end31
  store ptr %str, ptr %this.addr.i71, align 8
  %this1.i72 = load ptr, ptr %this.addr.i71, align 8
  store ptr %this1.i72, ptr %this.addr.i117, align 8
  %this1.i118 = load ptr, ptr %this.addr.i117, align 8
  store ptr %this1.i118, ptr %this.addr.i.i116, align 8
  %this1.i.i119 = load ptr, ptr %this.addr.i.i116, align 8
  %27 = load ptr, ptr %this1.i.i119, align 8
  store ptr %27, ptr %slot.addr.i133, align 8
  %28 = load ptr, ptr %slot.addr.i133, align 8
  %call45 = call noundef i32 @_ZNK2v86String6LengthEv(ptr noundef nonnull align 1 dereferenceable(1) %28)
  %conv46 = sext i32 %call45 to i64
  %call47 = call noundef i64 @_ZN4nodeL24base64_decoded_size_fastEm(i64 noundef %conv46)
  store i64 %call47, ptr %data_size, align 8
  br label %sw.epilog

sw.bb48:                                          ; preds = %if.end31
  br label %do.body

do.body:                                          ; preds = %sw.bb48
  store ptr %str, ptr %this.addr.i68, align 8
  %this1.i69 = load ptr, ptr %this.addr.i68, align 8
  store ptr %this1.i69, ptr %this.addr.i122, align 8
  %this1.i123 = load ptr, ptr %this.addr.i122, align 8
  store ptr %this1.i123, ptr %this.addr.i.i121, align 8
  %this1.i.i124 = load ptr, ptr %this.addr.i.i121, align 8
  %29 = load ptr, ptr %this1.i.i124, align 8
  store ptr %29, ptr %slot.addr.i132, align 8
  %30 = load ptr, ptr %slot.addr.i132, align 8
  %call50 = call noundef i32 @_ZNK2v86String6LengthEv(ptr noundef nonnull align 1 dereferenceable(1) %30)
  %rem = srem i32 %call50, 2
  %cmp51 = icmp eq i32 %rem, 0
  br i1 %cmp51, label %land.rhs, label %land.end

land.rhs:                                         ; preds = %do.body
  br label %land.end

land.end:                                         ; preds = %land.rhs, %do.body
  %31 = phi i1 [ false, %do.body ], [ true, %land.rhs ]
  %lnot52 = xor i1 %31, true
  %lnot53 = xor i1 %lnot52, true
  %lnot54 = xor i1 %lnot53, true
  br i1 %lnot54, label %if.then56, label %if.end58

if.then56:                                        ; preds = %land.end
  br label %do.body57

do.body57:                                        ; preds = %if.then56
  call void @_ZN4node6AssertERKNS_13AssertionInfoE(ptr noundef nonnull align 8 dereferenceable(24) @_ZZN4node11StringBytes11StorageSizeEPN2v87IsolateENS1_5LocalINS1_5ValueEEENS_8encodingEE4args)
  call void @abort() #16
  unreachable

do.cond:                                          ; No predecessors!
  br label %do.end

do.end:                                           ; preds = %do.cond
  br label %if.end58

if.end58:                                         ; preds = %do.end, %land.end
  br label %do.cond59

do.cond59:                                        ; preds = %if.end58
  br label %do.end60

do.end60:                                         ; preds = %do.cond59
  store ptr %str, ptr %this.addr.i, align 8
  %this1.i = load ptr, ptr %this.addr.i, align 8
  store ptr %this1.i, ptr %this.addr.i127, align 8
  %this1.i128 = load ptr, ptr %this.addr.i127, align 8
  store ptr %this1.i128, ptr %this.addr.i.i126, align 8
  %this1.i.i129 = load ptr, ptr %this.addr.i.i126, align 8
  %32 = load ptr, ptr %this1.i.i129, align 8
  store ptr %32, ptr %slot.addr.i131, align 8
  %33 = load ptr, ptr %slot.addr.i131, align 8
  %call62 = call noundef i32 @_ZNK2v86String6LengthEv(ptr noundef nonnull align 1 dereferenceable(1) %33)
  %div = sdiv i32 %call62, 2
  %conv63 = sext i32 %div to i64
  store i64 %conv63, ptr %data_size, align 8
  br label %sw.epilog

sw.default:                                       ; preds = %if.end31
  br label %do.body64

do.body64:                                        ; preds = %sw.default
  call void @_ZN4node6AssertERKNS_13AssertionInfoE(ptr noundef nonnull align 8 dereferenceable(24) @_ZZN4node11StringBytes11StorageSizeEPN2v87IsolateENS1_5LocalINS1_5ValueEEENS_8encodingEE4args_0)
  call void @abort() #16
  unreachable

do.cond65:                                        ; No predecessors!
  br label %do.end66

do.end66:                                         ; preds = %do.cond65
  br label %sw.epilog

sw.epilog:                                        ; preds = %do.end66, %do.end60, %sw.bb43, %sw.bb38, %sw.bb34, %sw.bb
  %call67 = call { i8, i64 } @_ZN2v84JustImEENS_5MaybeIT_EERKS2_(ptr noundef nonnull align 8 dereferenceable(8) %data_size)
  %34 = getelementptr inbounds { i8, i64 }, ptr %retval, i32 0, i32 0
  %35 = extractvalue { i8, i64 } %call67, 0
  store i8 %35, ptr %34, align 8
  %36 = getelementptr inbounds { i8, i64 }, ptr %retval, i32 0, i32 1
  %37 = extractvalue { i8, i64 } %call67, 1
  store i64 %37, ptr %36, align 8
  store i32 1, ptr %cleanup.dest.slot, align 4
  br label %cleanup

cleanup:                                          ; preds = %sw.epilog, %if.then29, %if.then
  call void @_ZN2v811HandleScopeD1Ev(ptr noundef nonnull align 8 dereferenceable(24) %scope) #3
  %38 = load { i8, i64 }, ptr %retval, align 8
  ret { i8, i64 } %38
}