; Function Attrs: mustprogress nounwind uwtable
define dso_local { i8, i64 } @_ZN4node11StringBytes11StorageSizeEPN2v87IsolateENS1_5LocalINS1_5ValueEEENS_8encodingE(ptr noundef %isolate, ptr %val.coerce, i32 noundef %encoding) local_unnamed_addr #3 align 2 {
entry:
  %scope = alloca %"class.v8::HandleScope", align 8
  call void @_ZN2v811HandleScopeC1EPNS_7IsolateE(ptr noundef nonnull align 8 dereferenceable(24) %scope, ptr noundef %isolate) #19
  %call = call noundef zeroext i1 @_ZN4node6Buffer11HasInstanceEN2v85LocalINS1_5ValueEEE(ptr %val.coerce) #19
  %0 = and i32 %encoding, -3
  %or.cond = icmp eq i32 %0, 4
  %or.cond10 = and i1 %or.cond, %call
  br i1 %or.cond10, label %if.then, label %if.end

if.then:                                          ; preds = %entry
  %call11 = call noundef i64 @_ZN4node6Buffer6LengthEN2v85LocalINS1_5ValueEEE(ptr %val.coerce) #19
  %.fca.1.insert.i = insertvalue { i8, i64 } { i8 1, i64 poison }, i64 %call11, 1
  br label %cleanup

if.end:                                           ; preds = %entry
  %call16 = call ptr @_ZN2v87Isolate17GetCurrentContextEv(ptr noundef nonnull align 1 dereferenceable(1) %isolate) #19
  %call23 = call ptr @_ZNK2v85Value8ToStringENS_5LocalINS_7ContextEEE(ptr noundef nonnull align 1 dereferenceable(1) %val.coerce, ptr %call16) #19
  %cmp.i = icmp eq ptr %call23, null
  br i1 %cmp.i, label %cleanup, label %if.end31

if.end31:                                         ; preds = %if.end
  switch i32 %encoding, label %do.body64 [
    i32 0, label %sw.bb
    i32 4, label %sw.bb
    i32 6, label %sw.bb34
    i32 1, label %sw.bb34
    i32 3, label %sw.bb38
    i32 7, label %sw.bb43
    i32 2, label %sw.bb43
    i32 5, label %do.body
  ]

sw.bb:                                            ; preds = %if.end31, %if.end31
  %call33 = call noundef i32 @_ZNK2v86String6LengthEv(ptr noundef nonnull align 1 dereferenceable(1) %call23) #19
  %conv = sext i32 %call33 to i64
  br label %sw.epilog

sw.bb34:                                          ; preds = %if.end31, %if.end31
  %call36 = call noundef i32 @_ZNK2v86String6LengthEv(ptr noundef nonnull align 1 dereferenceable(1) %call23) #19
  %mul = mul nsw i32 %call36, 3
  %conv37 = sext i32 %mul to i64
  br label %sw.epilog

sw.bb38:                                          ; preds = %if.end31
  %call40 = call noundef i32 @_ZNK2v86String6LengthEv(ptr noundef nonnull align 1 dereferenceable(1) %call23) #19
  %conv41 = sext i32 %call40 to i64
  %mul42 = shl nsw i64 %conv41, 1
  br label %sw.epilog

sw.bb43:                                          ; preds = %if.end31, %if.end31
  %call45 = call noundef i32 @_ZNK2v86String6LengthEv(ptr noundef nonnull align 1 dereferenceable(1) %call23) #19
  %cmp.i11 = icmp ugt i32 %call45, 1
  br i1 %cmp.i11, label %cond.true.i, label %sw.epilog

cond.true.i:                                      ; preds = %sw.bb43
  %conv46 = sext i32 %call45 to i64
  %div3.i = lshr i64 %conv46, 2
  %mul.i = mul nuw i64 %div3.i, 3
  %rem.i = and i64 %conv46, 3
  %add.i = add nuw nsw i64 %rem.i, 1
  %div14.i = lshr i64 %add.i, 1
  %add2.i = add nuw i64 %div14.i, %mul.i
  br label %sw.epilog

do.body:                                          ; preds = %if.end31
  %call50 = call noundef i32 @_ZNK2v86String6LengthEv(ptr noundef nonnull align 1 dereferenceable(1) %call23) #19
  %1 = and i32 %call50, 1
  %cmp51.not = icmp eq i32 %1, 0
  br i1 %cmp51.not, label %do.end60, label %do.body57

do.body57:                                        ; preds = %do.body
  call void @_ZN4node6AssertERKNS_13AssertionInfoE(ptr noundef nonnull align 8 dereferenceable(24) @_ZZN4node11StringBytes11StorageSizeEPN2v87IsolateENS1_5LocalINS1_5ValueEEENS_8encodingEE4args) #19
  call void @abort() #20
  unreachable

do.end60:                                         ; preds = %do.body
  %call62 = call noundef i32 @_ZNK2v86String6LengthEv(ptr noundef nonnull align 1 dereferenceable(1) %call23) #19
  %div = sdiv i32 %call62, 2
  %conv63 = sext i32 %div to i64
  br label %sw.epilog

do.body64:                                        ; preds = %if.end31
  call void @_ZN4node6AssertERKNS_13AssertionInfoE(ptr noundef nonnull align 8 dereferenceable(24) @_ZZN4node11StringBytes11StorageSizeEPN2v87IsolateENS1_5LocalINS1_5ValueEEENS_8encodingEE4args_0) #19
  call void @abort() #20
  unreachable

sw.epilog:                                        ; preds = %cond.true.i, %sw.bb43, %do.end60, %sw.bb38, %sw.bb34, %sw.bb
  %data_size.0 = phi i64 [ %conv63, %do.end60 ], [ %mul42, %sw.bb38 ], [ %conv37, %sw.bb34 ], [ %conv, %sw.bb ], [ %add2.i, %cond.true.i ], [ 0, %sw.bb43 ]
  %.fca.1.insert.i12 = insertvalue { i8, i64 } { i8 1, i64 poison }, i64 %data_size.0, 1
  br label %cleanup

cleanup:                                          ; preds = %if.end, %sw.epilog, %if.then
  %call12.pn = phi { i8, i64 } [ %.fca.1.insert.i, %if.then ], [ %.fca.1.insert.i12, %sw.epilog ], [ { i8 0, i64 undef }, %if.end ]
  call void @_ZN2v811HandleScopeD1Ev(ptr noundef nonnull align 8 dereferenceable(24) %scope) #19
  ret { i8, i64 } %call12.pn
}